	.file	"inplace_swap.c"
	.section .rdata,"dr"
LC0:
	.ascii "x=%d\12\0"
LC1:
	.ascii "y=%d\12\0"
	.text
	.globl	_inplace_swap
	.def	_inplace_swap;	.scl	2;	.type	32;	.endef
_inplace_swap:
LFB10:
	.cfi_startproc
	pushl	%ebp
	.cfi_def_cfa_offset 8
	.cfi_offset 5, -8
	movl	%esp, %ebp
	.cfi_def_cfa_register 5
	subl	$40, %esp
	movl	$3, -12(%ebp)
	movl	8(%ebp), %eax
	movl	-12(%ebp), %edx
	movl	%edx, (%eax)
	movl	8(%ebp), %eax
	movl	(%eax), %eax
	movl	%eax, 4(%esp)
	movl	$LC0, (%esp)
	call	_printf
	movl	12(%ebp), %eax
	movl	(%eax), %eax
	movl	%eax, 4(%esp)
	movl	$LC1, (%esp)
	call	_printf
	movl	8(%ebp), %eax
	movl	(%eax), %edx
	movl	12(%ebp), %eax
	movl	(%eax), %eax
	xorl	%eax, %edx
	movl	12(%ebp), %eax
	movl	%edx, (%eax)
	movl	8(%ebp), %eax
	movl	(%eax), %edx
	movl	12(%ebp), %eax
	movl	(%eax), %eax
	xorl	%eax, %edx
	movl	8(%ebp), %eax
	movl	%edx, (%eax)
	movl	8(%ebp), %eax
	movl	(%eax), %edx
	movl	12(%ebp), %eax
	movl	(%eax), %eax
	xorl	%eax, %edx
	movl	12(%ebp), %eax
	movl	%edx, (%eax)
	nop
	leave
	.cfi_restore 5
	.cfi_def_cfa 4, 4
	ret
	.cfi_endproc
LFE10:
	.def	___main;	.scl	2;	.type	32;	.endef
	.section .rdata,"dr"
LC2:
	.ascii "%d\12\0"
	.text
	.globl	_main
	.def	_main;	.scl	2;	.type	32;	.endef
_main:
LFB11:
	.cfi_startproc
	pushl	%ebp
	.cfi_def_cfa_offset 8
	.cfi_offset 5, -8
	movl	%esp, %ebp
	.cfi_def_cfa_register 5
	andl	$-16, %esp
	subl	$32, %esp
	call	___main
	movl	$5, 28(%esp)
	movl	$6, 24(%esp)
	leal	24(%esp), %eax
	movl	%eax, 4(%esp)
	leal	28(%esp), %eax
	movl	%eax, (%esp)
	call	_inplace_swap
	leal	28(%esp), %eax
	movl	%eax, 4(%esp)
	movl	$LC2, (%esp)
	call	_printf
	leal	24(%esp), %eax
	movl	%eax, 4(%esp)
	movl	$LC2, (%esp)
	call	_printf
	nop
	leave
	.cfi_restore 5
	.cfi_def_cfa 4, 4
	ret
	.cfi_endproc
LFE11:
	.ident	"GCC: (GNU) 5.3.0"
	.def	_printf;	.scl	2;	.type	32;	.endef
